; Function Attrs: mustprogress uwtable
define void @_ZNK5arrow11RecordBatch15GetColumnByNameERKNSt7__cxx1112basic_stringIcSt11char_traitsIcESaIcEEE(ptr dead_on_unwind noalias writable sret(%"class.std::shared_ptr.15") align 8 %0, ptr noundef nonnull align 8 dereferenceable(32) %1, ptr noundef nonnull align 8 dereferenceable(32) %2) local_unnamed_addr #1 align 2 {
  %4 = getelementptr inbounds nuw i8, ptr %1, i64 8
  %5 = load ptr, ptr %4, align 8, !tbaa !59
  %6 = tail call noundef i32 @_ZNK5arrow6Schema13GetFieldIndexERKNSt7__cxx1112basic_stringIcSt11char_traitsIcESaIcEEE(ptr noundef nonnull align 8 dereferenceable(32) %5, ptr noundef nonnull align 8 dereferenceable(32) %2)
  %7 = icmp eq i32 %6, -1
  br i1 %7, label %8, label %9

8:                                                ; preds = %3
  tail call void @llvm.memset.p0.i64(ptr noundef nonnull align 8 dereferenceable(16) %0, i8 0, i64 16, i1 false)
  br label %13

9:                                                ; preds = %3
  %10 = load ptr, ptr %1, align 8, !tbaa !56
  %11 = getelementptr inbounds nuw i8, ptr %10, i64 24
  %12 = load ptr, ptr %11, align 8
  tail call void %12(ptr dead_on_unwind writable sret(%"class.std::shared_ptr.15") align 8 %0, ptr noundef nonnull align 8 dereferenceable(32) %1, i32 noundef %6)
  br label %13

13:                                               ; preds = %9, %8
  ret void
}